target datalayout = "e-m:e-p270:32:32-p271:32:32-p272:64:64-i64:64-i128:128-f80:128-n8:16:32:64-S128"
target triple = "x86_64-pc-linux-gnu"

%struct.pmix_object_t = type { %union.pthread_mutex_t, ptr, i32, %struct.pmix_tma }
%union.pthread_mutex_t = type { %struct.__pthread_mutex_s }
%struct.__pthread_mutex_s = type { i32, i32, i32, i32, i32, i16, i16, %struct.__pthread_internal_list }
%struct.__pthread_internal_list = type { ptr, ptr }
%struct.pmix_tma = type { ptr, ptr, ptr, ptr, ptr, ptr, ptr, ptr }
%struct.pmix_bfrop_type_info_t = type { %struct.pmix_object_t, i16, ptr, ptr, ptr, ptr, ptr }
%struct.pmix_pointer_array_t = type { %struct.pmix_object_t, i32, i32, i32, i32, i32, ptr, ptr }
%struct.pmix_data_array = type { i16, i64, ptr }

@.str.1 = private unnamed_addr constant [23 x i8] c"base/bfrop_base_pack.c\00", align 1
@.str.9 = private unnamed_addr constant [44 x i8] c"PACK-PMIX-VALUE[%s:%d]: UNSUPPORTED TYPE %d\00", align 1

; Function Attrs: inlinehint nounwind uwtable
define internal ptr @pmix_pointer_array_get_item(ptr noundef %0, i32 noundef %1) #3 {
  %3 = alloca ptr, align 8
  %4 = alloca ptr, align 8
  %5 = alloca i32, align 4
  %6 = alloca ptr, align 8
  %7 = alloca i32, align 4
  store ptr %0, ptr %4, align 8, !tbaa !3
  store i32 %1, ptr %5, align 4, !tbaa !9
  call void @llvm.lifetime.start.p0(i64 8, ptr %6) #9
  %8 = load i32, ptr %5, align 4, !tbaa !9
  %9 = icmp sgt i32 0, %8
  br i1 %9, label %16, label %10

10:                                               ; preds = %2
  %11 = load ptr, ptr %4, align 8, !tbaa !3
  %12 = getelementptr inbounds nuw %struct.pmix_pointer_array_t, ptr %11, i32 0, i32 3
  %13 = load i32, ptr %12, align 8, !tbaa !22
  %14 = load i32, ptr %5, align 4, !tbaa !9
  %15 = icmp sle i32 %13, %14
  br label %16

16:                                               ; preds = %10, %2
  %17 = phi i1 [ true, %2 ], [ %15, %10 ]
  %18 = xor i1 %17, true
  %19 = xor i1 %18, true
  %20 = zext i1 %19 to i32
  %21 = sext i32 %20 to i64
  %22 = call i64 @llvm.expect.i64(i64 %21, i64 0)
  %23 = icmp ne i64 %22, 0
  br i1 %23, label %24, label %25

24:                                               ; preds = %16
  store ptr null, ptr %3, align 8
  store i32 1, ptr %7, align 4
  br label %34

25:                                               ; preds = %16
  %26 = load ptr, ptr %4, align 8, !tbaa !3
  %27 = getelementptr inbounds nuw %struct.pmix_pointer_array_t, ptr %26, i32 0, i32 7
  %28 = load ptr, ptr %27, align 8, !tbaa !25
  %29 = load i32, ptr %5, align 4, !tbaa !9
  %30 = sext i32 %29 to i64
  %31 = getelementptr inbounds ptr, ptr %28, i64 %30
  %32 = load ptr, ptr %31, align 8, !tbaa !8
  store ptr %32, ptr %6, align 8, !tbaa !8
  %33 = load ptr, ptr %6, align 8, !tbaa !8
  store ptr %33, ptr %3, align 8
  store i32 1, ptr %7, align 4
  br label %34

34:                                               ; preds = %25, %24
  call void @llvm.lifetime.end.p0(i64 8, ptr %6) #9
  %35 = load ptr, ptr %3, align 8
  ret ptr %35
}

; Function Attrs: nounwind uwtable
define i32 @pmix_bfrops_base_pack_darray(ptr noundef %0, ptr noundef %1, ptr noundef %2, i32 noundef %3, i16 noundef zeroext %4) #0 {
  %6 = alloca i32, align 4
  %7 = alloca ptr, align 8
  %8 = alloca ptr, align 8
  %9 = alloca ptr, align 8
  %10 = alloca i32, align 4
  %11 = alloca i16, align 2
  %12 = alloca ptr, align 8
  %13 = alloca i32, align 4
  %14 = alloca i32, align 4
  %15 = alloca i32, align 4
  %16 = alloca ptr, align 8
  %17 = alloca ptr, align 8
  store ptr %0, ptr %7, align 8, !tbaa !3
  store ptr %1, ptr %8, align 8, !tbaa !8
  store ptr %2, ptr %9, align 8, !tbaa !8
  store i32 %3, ptr %10, align 4, !tbaa !9
  store i16 %4, ptr %11, align 2, !tbaa !11
  call void @llvm.lifetime.start.p0(i64 8, ptr %12) #9
  %18 = load ptr, ptr %9, align 8, !tbaa !8
  store ptr %18, ptr %12, align 8, !tbaa !119
  call void @llvm.lifetime.start.p0(i64 4, ptr %13) #9
  call void @llvm.lifetime.start.p0(i64 4, ptr %14) #9
  store i32 0, ptr %14, align 4, !tbaa !9
  br label %19

19:                                               ; preds = %139, %5
  %20 = load i32, ptr %14, align 4, !tbaa !9
  %21 = load i32, ptr %10, align 4, !tbaa !9
  %22 = icmp slt i32 %20, %21
  br i1 %22, label %23, label %142

23:                                               ; preds = %19
  %24 = load ptr, ptr %7, align 8, !tbaa !3
  %25 = load ptr, ptr %8, align 8, !tbaa !8
  %26 = load ptr, ptr %12, align 8, !tbaa !119
  %27 = load i32, ptr %14, align 4, !tbaa !9
  %28 = sext i32 %27 to i64
  %29 = getelementptr inbounds %struct.pmix_data_array, ptr %26, i64 %28
  %30 = getelementptr inbounds nuw %struct.pmix_data_array, ptr %29, i32 0, i32 0
  %31 = load i16, ptr %30, align 8, !tbaa !121
  %32 = call i32 @pmix_bfrop_store_data_type(ptr noundef %24, ptr noundef %25, i16 noundef zeroext %31)
  store i32 %32, ptr %13, align 4, !tbaa !9
  %33 = icmp ne i32 0, %32
  br i1 %33, label %34, label %36

34:                                               ; preds = %23
  %35 = load i32, ptr %13, align 4, !tbaa !9
  store i32 %35, ptr %6, align 4
  store i32 1, ptr %15, align 4
  br label %143

36:                                               ; preds = %23
  br label %37

37:                                               ; preds = %36
  call void @llvm.lifetime.start.p0(i64 8, ptr %16) #9
  %38 = load ptr, ptr %7, align 8, !tbaa !3
  %39 = call ptr @pmix_pointer_array_get_item(ptr noundef %38, i32 noundef 4)
  store ptr %39, ptr %16, align 8, !tbaa !8
  %40 = load ptr, ptr %16, align 8, !tbaa !8
  %41 = icmp eq ptr null, %40
  br i1 %41, label %42, label %43

42:                                               ; preds = %37
  store i32 -16, ptr %13, align 4, !tbaa !9
  br label %55

43:                                               ; preds = %37
  %44 = load ptr, ptr %16, align 8, !tbaa !8
  %45 = getelementptr inbounds nuw %struct.pmix_bfrop_type_info_t, ptr %44, i32 0, i32 3
  %46 = load ptr, ptr %45, align 8, !tbaa !20
  %47 = load ptr, ptr %7, align 8, !tbaa !3
  %48 = load ptr, ptr %8, align 8, !tbaa !8
  %49 = load ptr, ptr %12, align 8, !tbaa !119
  %50 = load i32, ptr %14, align 4, !tbaa !9
  %51 = sext i32 %50 to i64
  %52 = getelementptr inbounds %struct.pmix_data_array, ptr %49, i64 %51
  %53 = getelementptr inbounds nuw %struct.pmix_data_array, ptr %52, i32 0, i32 1
  %54 = call i32 %46(ptr noundef %47, ptr noundef %48, ptr noundef %53, i32 noundef 1, i16 noundef zeroext 4)
  store i32 %54, ptr %13, align 4, !tbaa !9
  br label %55

55:                                               ; preds = %43, %42
  call void @llvm.lifetime.end.p0(i64 8, ptr %16) #9
  br label %56

56:                                               ; preds = %55
  br label %57

57:                                               ; preds = %56
  %58 = load i32, ptr %13, align 4, !tbaa !9
  %59 = icmp ne i32 0, %58
  br i1 %59, label %60, label %62

60:                                               ; preds = %57
  %61 = load i32, ptr %13, align 4, !tbaa !9
  store i32 %61, ptr %6, align 4
  store i32 1, ptr %15, align 4
  br label %143

62:                                               ; preds = %57
  %63 = load ptr, ptr %12, align 8, !tbaa !119
  %64 = load i32, ptr %14, align 4, !tbaa !9
  %65 = sext i32 %64 to i64
  %66 = getelementptr inbounds %struct.pmix_data_array, ptr %63, i64 %65
  %67 = getelementptr inbounds nuw %struct.pmix_data_array, ptr %66, i32 0, i32 1
  %68 = load i64, ptr %67, align 8, !tbaa !123
  %69 = icmp eq i64 0, %68
  br i1 %69, label %79, label %70

70:                                               ; preds = %62
  %71 = load ptr, ptr %12, align 8, !tbaa !119
  %72 = load i32, ptr %14, align 4, !tbaa !9
  %73 = sext i32 %72 to i64
  %74 = getelementptr inbounds %struct.pmix_data_array, ptr %71, i64 %73
  %75 = getelementptr inbounds nuw %struct.pmix_data_array, ptr %74, i32 0, i32 0
  %76 = load i16, ptr %75, align 8, !tbaa !121
  %77 = zext i16 %76 to i32
  %78 = icmp eq i32 0, %77
  br i1 %78, label %79, label %80

79:                                               ; preds = %70, %62
  br label %139

80:                                               ; preds = %70
  br label %81

81:                                               ; preds = %80
  call void @llvm.lifetime.start.p0(i64 8, ptr %17) #9
  %82 = load ptr, ptr %7, align 8, !tbaa !3
  %83 = load ptr, ptr %12, align 8, !tbaa !119
  %84 = load i32, ptr %14, align 4, !tbaa !9
  %85 = sext i32 %84 to i64
  %86 = getelementptr inbounds %struct.pmix_data_array, ptr %83, i64 %85
  %87 = getelementptr inbounds nuw %struct.pmix_data_array, ptr %86, i32 0, i32 0
  %88 = load i16, ptr %87, align 8, !tbaa !121
  %89 = zext i16 %88 to i32
  %90 = call ptr @pmix_pointer_array_get_item(ptr noundef %82, i32 noundef %89)
  store ptr %90, ptr %17, align 8, !tbaa !8
  %91 = load ptr, ptr %17, align 8, !tbaa !8
  %92 = icmp eq ptr null, %91
  br i1 %92, label %93, label %94

93:                                               ; preds = %81
  store i32 -16, ptr %13, align 4, !tbaa !9
  br label %120

94:                                               ; preds = %81
  %95 = load ptr, ptr %17, align 8, !tbaa !8
  %96 = getelementptr inbounds nuw %struct.pmix_bfrop_type_info_t, ptr %95, i32 0, i32 3
  %97 = load ptr, ptr %96, align 8, !tbaa !20
  %98 = load ptr, ptr %7, align 8, !tbaa !3
  %99 = load ptr, ptr %8, align 8, !tbaa !8
  %100 = load ptr, ptr %12, align 8, !tbaa !119
  %101 = load i32, ptr %14, align 4, !tbaa !9
  %102 = sext i32 %101 to i64
  %103 = getelementptr inbounds %struct.pmix_data_array, ptr %100, i64 %102
  %104 = getelementptr inbounds nuw %struct.pmix_data_array, ptr %103, i32 0, i32 2
  %105 = load ptr, ptr %104, align 8, !tbaa !124
  %106 = load ptr, ptr %12, align 8, !tbaa !119
  %107 = load i32, ptr %14, align 4, !tbaa !9
  %108 = sext i32 %107 to i64
  %109 = getelementptr inbounds %struct.pmix_data_array, ptr %106, i64 %108
  %110 = getelementptr inbounds nuw %struct.pmix_data_array, ptr %109, i32 0, i32 1
  %111 = load i64, ptr %110, align 8, !tbaa !123
  %112 = trunc i64 %111 to i32
  %113 = load ptr, ptr %12, align 8, !tbaa !119
  %114 = load i32, ptr %14, align 4, !tbaa !9
  %115 = sext i32 %114 to i64
  %116 = getelementptr inbounds %struct.pmix_data_array, ptr %113, i64 %115
  %117 = getelementptr inbounds nuw %struct.pmix_data_array, ptr %116, i32 0, i32 0
  %118 = load i16, ptr %117, align 8, !tbaa !121
  %119 = call i32 %97(ptr noundef %98, ptr noundef %99, ptr noundef %105, i32 noundef %112, i16 noundef zeroext %118)
  store i32 %119, ptr %13, align 4, !tbaa !9
  br label %120

120:                                              ; preds = %94, %93
  call void @llvm.lifetime.end.p0(i64 8, ptr %17) #9
  br label %121

121:                                              ; preds = %120
  br label %122

122:                                              ; preds = %121
  %123 = load i32, ptr %13, align 4, !tbaa !9
  %124 = icmp eq i32 -16, %123
  br i1 %124, label %125, label %133

125:                                              ; preds = %122
  %126 = load ptr, ptr %12, align 8, !tbaa !119
  %127 = load i32, ptr %14, align 4, !tbaa !9
  %128 = sext i32 %127 to i64
  %129 = getelementptr inbounds %struct.pmix_data_array, ptr %126, i64 %128
  %130 = getelementptr inbounds nuw %struct.pmix_data_array, ptr %129, i32 0, i32 0
  %131 = load i16, ptr %130, align 8, !tbaa !121
  %132 = zext i16 %131 to i32
  call void (i32, ptr, ...) @pmix_output(i32 noundef 0, ptr noundef @.str.9, ptr noundef @.str.1, i32 noundef 900, i32 noundef %132)
  br label %133

133:                                              ; preds = %125, %122
  %134 = load i32, ptr %13, align 4, !tbaa !9
  %135 = icmp ne i32 0, %134
  br i1 %135, label %136, label %138

136:                                              ; preds = %133
  %137 = load i32, ptr %13, align 4, !tbaa !9
  store i32 %137, ptr %6, align 4
  store i32 1, ptr %15, align 4
  br label %143

138:                                              ; preds = %133
  br label %139

139:                                              ; preds = %138, %79
  %140 = load i32, ptr %14, align 4, !tbaa !9
  %141 = add nsw i32 %140, 1
  store i32 %141, ptr %14, align 4, !tbaa !9
  br label %19, !llvm.loop !125

142:                                              ; preds = %19
  store i32 0, ptr %6, align 4
  store i32 1, ptr %15, align 4
  br label %143

143:                                              ; preds = %142, %136, %60, %34
  call void @llvm.lifetime.end.p0(i64 4, ptr %14) #9
  call void @llvm.lifetime.end.p0(i64 4, ptr %13) #9
  call void @llvm.lifetime.end.p0(i64 8, ptr %12) #9
  %144 = load i32, ptr %6, align 4
  ret i32 %144
}