; Function Attrs: nounwind uwtable
define i32 @pmix_bfrops_base_pack_darray(ptr noundef %0, ptr noundef %1, ptr noundef %2, i32 noundef %3, i16 noundef zeroext %4) local_unnamed_addr #0 {
  %6 = icmp sgt i32 %3, 0
  br i1 %6, label %.lr.ph, label %.thread

.lr.ph:                                           ; preds = %5
  %7 = getelementptr inbounds nuw i8, ptr %0, i64 128
  %8 = getelementptr inbounds nuw i8, ptr %0, i64 152
  %wide.trip.count = zext nneg i32 %3 to i64
  br label %9

9:                                                ; preds = %.lr.ph, %45
  %indvars.iv = phi i64 [ 0, %.lr.ph ], [ %indvars.iv.next, %45 ]
  %10 = getelementptr inbounds nuw %struct.pmix_data_array, ptr %2, i64 %indvars.iv
  %11 = load i16, ptr %10, align 8, !tbaa !92
  %12 = tail call i32 @pmix_bfrop_store_data_type(ptr noundef %0, ptr noundef %1, i16 noundef zeroext %11) #8
  %.not = icmp eq i32 %12, 0
  br i1 %.not, label %13, label %.thread

13:                                               ; preds = %9
  %14 = load i32, ptr %7, align 8, !tbaa !15
  %.not.i = icmp sgt i32 %14, 4
  br i1 %.not.i, label %pmix_pointer_array_get_item.exit, label %.thread, !prof !18

pmix_pointer_array_get_item.exit:                 ; preds = %13
  %15 = load ptr, ptr %8, align 8, !tbaa !19
  %16 = getelementptr inbounds nuw i8, ptr %15, i64 32
  %17 = load ptr, ptr %16, align 8, !tbaa !20
  %18 = icmp eq ptr %17, null
  br i1 %18, label %.thread, label %19

19:                                               ; preds = %pmix_pointer_array_get_item.exit
  %20 = getelementptr inbounds nuw i8, ptr %17, i64 136
  %21 = load ptr, ptr %20, align 8, !tbaa !21
  %22 = getelementptr inbounds nuw i8, ptr %10, i64 8
  %23 = tail call i32 %21(ptr noundef nonnull %0, ptr noundef %1, ptr noundef nonnull %22, i32 noundef 1, i16 noundef zeroext 4) #8
  %.not46 = icmp eq i32 %23, 0
  br i1 %.not46, label %24, label %.thread

24:                                               ; preds = %19
  %25 = load i64, ptr %22, align 8, !tbaa !94
  %26 = icmp eq i64 %25, 0
  br i1 %26, label %45, label %27

27:                                               ; preds = %24
  %28 = load i16, ptr %10, align 8, !tbaa !92
  %29 = icmp eq i16 %28, 0
  br i1 %29, label %45, label %30

30:                                               ; preds = %27
  %31 = zext i16 %28 to i32
  %32 = load i32, ptr %7, align 8, !tbaa !15
  %.not.i48 = icmp sgt i32 %32, %31
  br i1 %.not.i48, label %pmix_pointer_array_get_item.exit50, label %.thread56, !prof !18

pmix_pointer_array_get_item.exit50:               ; preds = %30
  %33 = load ptr, ptr %8, align 8, !tbaa !19
  %34 = zext i16 %28 to i64
  %35 = getelementptr inbounds nuw ptr, ptr %33, i64 %34
  %36 = load ptr, ptr %35, align 8, !tbaa !20
  %37 = icmp eq ptr %36, null
  br i1 %37, label %.thread56, label %38

38:                                               ; preds = %pmix_pointer_array_get_item.exit50
  %39 = getelementptr inbounds nuw i8, ptr %36, i64 136
  %40 = load ptr, ptr %39, align 8, !tbaa !21
  %41 = getelementptr inbounds nuw i8, ptr %10, i64 16
  %42 = load ptr, ptr %41, align 8, !tbaa !95
  %43 = trunc i64 %25 to i32
  %44 = tail call i32 %40(ptr noundef nonnull %0, ptr noundef %1, ptr noundef %42, i32 noundef %43, i16 noundef zeroext %28) #8
  switch i32 %44, label %.thread [
    i32 -16, label %..thread56_crit_edge
    i32 0, label %45
  ]

..thread56_crit_edge:                             ; preds = %38
  %.pre = load i16, ptr %10, align 8, !tbaa !92
  %.pre71 = zext i16 %.pre to i32
  br label %.thread56

.thread56:                                        ; preds = %30, %pmix_pointer_array_get_item.exit50, %..thread56_crit_edge
  %.pre-phi = phi i32 [ %.pre71, %..thread56_crit_edge ], [ %31, %pmix_pointer_array_get_item.exit50 ], [ %31, %30 ]
  tail call void (i32, ptr, ...) @pmix_output(i32 noundef 0, ptr noundef nonnull @.str.9, ptr noundef nonnull @.str.1, i32 noundef 900, i32 noundef %.pre-phi) #8
  br label %.thread

45:                                               ; preds = %38, %24, %27
  %indvars.iv.next = add nuw nsw i64 %indvars.iv, 1
  %exitcond.not = icmp eq i64 %indvars.iv.next, %wide.trip.count
  br i1 %exitcond.not, label %.thread, label %9, !llvm.loop !96

.thread:                                          ; preds = %9, %19, %38, %45, %pmix_pointer_array_get_item.exit, %13, %5, %.thread56
  %.0 = phi i32 [ -16, %.thread56 ], [ 0, %5 ], [ %12, %9 ], [ %23, %19 ], [ %44, %38 ], [ 0, %45 ], [ -16, %pmix_pointer_array_get_item.exit ], [ -16, %13 ]
  ret i32 %.0
}